; Function Attrs: mustprogress uwtable
define void @_ZN2cv9Feature2D6detectERKNS_11_InputArrayERSt6vectorINS_8KeyPointESaIS5_EES3_(ptr noundef nonnull align 8 dereferenceable(8) %0, ptr noundef nonnull align 8 dereferenceable(24) %1, ptr noundef nonnull align 8 dereferenceable(24) %2, ptr noundef nonnull align 8 dereferenceable(24) %3) unnamed_addr #5 align 2 personality ptr @__gxx_personality_v0 {
  %5 = alloca %"class.cv::utils::trace::details::Region", align 8
  call void @llvm.lifetime.start.p0(i64 16, ptr nonnull %5) #20
  call void @_ZN2cv5utils5trace7details6RegionC1ERKNS3_21LocationStaticStorageE(ptr noundef nonnull align 8 dereferenceable(12) %5, ptr noundef nonnull align 8 dereferenceable(32) @_ZZN2cv9Feature2D6detectERKNS_11_InputArrayERSt6vectorINS_8KeyPointESaIS5_EES3_E24__cv_trace_location_fn63)
  %6 = invoke noundef zeroext i1 @_ZNK2cv11_InputArray5emptyEv(ptr noundef nonnull align 8 dereferenceable(24) %1)
          to label %7 unwind label %13

7:                                                ; preds = %4
  br i1 %6, label %8, label %15

8:                                                ; preds = %7
  %9 = load ptr, ptr %2, align 8, !tbaa !6
  %10 = getelementptr inbounds nuw i8, ptr %2, i64 8
  %11 = load ptr, ptr %10, align 8, !tbaa !11
  %.not.i.i = icmp eq ptr %11, %9
  br i1 %.not.i.i, label %_ZNSt6vectorIN2cv8KeyPointESaIS1_EE5clearEv.exit, label %12

12:                                               ; preds = %8
  store ptr %9, ptr %10, align 8, !tbaa !11
  br label %_ZNSt6vectorIN2cv8KeyPointESaIS1_EE5clearEv.exit

13:                                               ; preds = %17, %15, %4
  %14 = landingpad { ptr, i32 }
          cleanup
  call void @_ZN2cv5utils5trace7details6RegionD2Ev(ptr noundef nonnull align 8 dereferenceable(12) %5) #20
  call void @llvm.lifetime.end.p0(i64 16, ptr nonnull %5) #20
  resume { ptr, i32 } %14

15:                                               ; preds = %7
  %16 = invoke noundef nonnull align 8 dereferenceable(24) ptr @_ZN2cv7noArrayEv()
          to label %17 unwind label %13

17:                                               ; preds = %15
  %18 = load ptr, ptr %0, align 8, !tbaa !3
  %19 = getelementptr inbounds nuw i8, ptr %18, i64 96
  %20 = load ptr, ptr %19, align 8
  invoke void %20(ptr noundef nonnull align 8 dereferenceable(8) %0, ptr noundef nonnull align 8 dereferenceable(24) %1, ptr noundef nonnull align 8 dereferenceable(24) %3, ptr noundef nonnull align 8 dereferenceable(24) %2, ptr noundef nonnull align 8 dereferenceable(24) %16, i1 noundef zeroext false)
          to label %_ZNSt6vectorIN2cv8KeyPointESaIS1_EE5clearEv.exit unwind label %13

_ZNSt6vectorIN2cv8KeyPointESaIS1_EE5clearEv.exit: ; preds = %12, %8, %17
  %21 = getelementptr inbounds nuw i8, ptr %5, i64 8
  %22 = load i32, ptr %21, align 8, !tbaa !12
  %.not.i = icmp eq i32 %22, 0
  br i1 %.not.i, label %_ZN2cv5utils5trace7details6RegionD2Ev.exit, label %23

23:                                               ; preds = %_ZNSt6vectorIN2cv8KeyPointESaIS1_EE5clearEv.exit
  invoke void @_ZN2cv5utils5trace7details6Region7destroyEv(ptr noundef nonnull align 8 dereferenceable(12) %5)
          to label %_ZN2cv5utils5trace7details6RegionD2Ev.exit unwind label %24

24:                                               ; preds = %23
  %25 = landingpad { ptr, i32 }
          catch ptr null
  %26 = extractvalue { ptr, i32 } %25, 0
  call void @__clang_call_terminate(ptr %26) #22
  unreachable

_ZN2cv5utils5trace7details6RegionD2Ev.exit:       ; preds = %_ZNSt6vectorIN2cv8KeyPointESaIS1_EE5clearEv.exit, %23
  call void @llvm.lifetime.end.p0(i64 16, ptr nonnull %5) #20
  ret void
}